; Function Attrs: mustprogress nofree norecurse nosync nounwind willreturn memory(write, argmem: readwrite, inaccessiblemem: none) uwtable
define void @Fxu_ListMatrixAddCube(ptr noundef captures(none) %0, ptr noundef %1) local_unnamed_addr #0 {
  %3 = load ptr, ptr %0, align 8, !tbaa !19
  %4 = icmp eq ptr %3, null
  br i1 %4, label %5, label %8

5:                                                ; preds = %2
  store ptr %1, ptr %0, align 8, !tbaa !19
  %6 = getelementptr inbounds nuw i8, ptr %0, i64 8
  store ptr %1, ptr %6, align 8, !tbaa !21
  %7 = getelementptr inbounds nuw i8, ptr %1, i64 56
  store ptr null, ptr %7, align 8, !tbaa !22
  br label %13

8:                                                ; preds = %2
  %9 = getelementptr inbounds nuw i8, ptr %1, i64 56
  store ptr null, ptr %9, align 8, !tbaa !22
  %10 = getelementptr inbounds nuw i8, ptr %0, i64 8
  %11 = load ptr, ptr %10, align 8, !tbaa !21
  %12 = getelementptr inbounds nuw i8, ptr %11, i64 56
  store ptr %1, ptr %12, align 8, !tbaa !22
  store ptr %1, ptr %10, align 8, !tbaa !21
  br label %13

13:                                               ; preds = %8, %5
  %.sink = phi ptr [ null, %5 ], [ %11, %8 ]
  %14 = getelementptr inbounds nuw i8, ptr %1, i64 48
  store ptr %.sink, ptr %14, align 8, !tbaa !24
  %15 = getelementptr inbounds nuw i8, ptr %0, i64 16
  %16 = load i32, ptr %15, align 8, !tbaa !25
  %17 = add nsw i32 %16, 1
  store i32 %17, ptr %15, align 8, !tbaa !25
  ret void
}